(dp0
Vmfrac$mrow$msup$mrow$(
p1
F2.0530784434834195
sVmfrac$mrow$msup$mrow$)
p2
F2.0530784434834195
sVmrow$msqrt$mrow$msup
p3
F1.7520484478194385
sVmfrac$mrow$msup$mrow$+
p4
F2.0530784434834195
sVcn
p5
F0.3628823634549061
sVmfrac$mrow$msup$mrow$var
p6
F2.0530784434834195
sVmfrac$mrow$+
p7
F1.5759571887637573
sV\u2265
p8
F2.0530784434834195
sVmrow$e
p9
F2.0530784434834195
sV\u2212
p10
F0.4732948468666096
sVsec
p11
F1.7520484478194385
sVmrow$[
p12
F2.0530784434834195
sV\u2218
p13
F1.5759571887637573
sVmsqrt$mrow$cn
p14
F2.0530784434834195
sVmsup$var
p15
F0.4298291530855193
sVtan
p16
F1.5759571887637573
sVmfrac$mrow$tan
p17
F2.0530784434834195
sVmsup$mrow$sin
p18
F2.0530784434834195
sVmsup$mrow$var
p19
F1.7520484478194385
sVmrow$]
p20
F2.0530784434834195
sVmfrac$mrow$msup$cn
p21
F1.5759571887637573
sVmrow$msqrt$mrow$var
p22
F1.7520484478194385
sV)
p23
F0.9738971974357948
sV(
p24
F0.9738971974357948
sV+
p25
F0.3718372061078325
sV]
p26
F2.0530784434834195
sVmrow$msqrt$mrow$msup$var
p27
F1.7520484478194385
sVmfrac$mrow$msup$mrow$cn
p28
F2.0530784434834195
sV.
p29
F1.7520484478194385
sVmsup$sin
p30
F1.7520484478194385
sVmfrac$mrow$\u2212
p31
F2.0530784434834195
sVmsqrt
p32
F1.7520484478194385
sVmsup$mrow$(
p33
F1.7520484478194385
sVvar
p34
F0.07535483819457192
sVmfrac$mrow$cos
p35
F1.7520484478194385
sV=
p36
F0.39986592970807605
sVsin
p37
F1.1499884564914762
sV>
p38
F1.5759571887637573
sVmfrac$mrow$msup$var
p39
F2.0530784434834195
sVmfrac$mrow$e
p40
F2.0530784434834195
sV\u2260
p41
F1.7520484478194385
sVmsup$mrow$)
p42
F1.7520484478194385
sVmfrac$mrow$msup$tan
p43
F2.0530784434834195
sVmrow$msqrt$mrow$msup$cn
p44
F1.7520484478194385
sVmsup$mrow$cos
p45
F2.0530784434834195
sVmfrac$mrow$cn
p46
F1.0988359340440947
sVmsup
p47
F0.3455082673854834
sVmfrac$mrow$msup
p48
F1.5759571887637573
sVmsup$cos
p49
F2.0530784434834195
sVmrow$msqrt$mrow$\u2212
p50
F1.7520484478194385
sVmsup$sec
p51
F1.7520484478194385
sVmrow$cn
p52
F0.9738971974357948
sV[
p53
F2.0530784434834195
sVmrow$)
p54
F1.0988359340440947
sVmrow$(
p55
F1.0988359340440947
sVmrow$+
p56
F1.4510184521554574
sVmrow$msqrt$mrow$cn
p57
F1.7520484478194385
sVmfrac
p58
F1.0530784434834197
sVcos
p59
F1.0988359340440947
sVe
p60
F2.0530784434834195
sV\u2264
p61
F2.0530784434834195
sVmrow$\u2212
p62
F1.0988359340440947
sVmsup$cn
p63
F0.3628823634549061
sVmrow$var
p64
F0.9738971974357948
sVmfrac$mrow$var
p65
F1.0988359340440947
sVmsup$mrow$\u2212
p66
F1.7520484478194385
sVmsup$\u2218
p67
F1.5759571887637573
sVmrow$msqrt
p68
F1.7520484478194385
sVmfrac$mrow$sin
p69
F2.0530784434834195
s.