(dp0
S'total_distinct_terms'
p1
I69
sS'all_terms'
p2
(lp3
S'('
p4
aS')'
p5
aS'+'
p6
aS'.'
p7
aS'='
p8
aS'>'
p9
aS'['
p10
aS']'
p11
aS'cn'
p12
aS'cos'
p13
aS'e'
p14
aS'mfrac'
p15
aS'mfrac$mrow$+'
p16
aS'mfrac$mrow$cn'
p17
aS'mfrac$mrow$cos'
p18
aS'mfrac$mrow$e'
p19
aS'mfrac$mrow$msup'
p20
aS'mfrac$mrow$msup$cn'
p21
aS'mfrac$mrow$msup$mrow$('
p22
aS'mfrac$mrow$msup$mrow$)'
p23
aS'mfrac$mrow$msup$mrow$+'
p24
aS'mfrac$mrow$msup$mrow$cn'
p25
aS'mfrac$mrow$msup$mrow$var'
p26
aS'mfrac$mrow$msup$tan'
p27
aS'mfrac$mrow$msup$var'
p28
aS'mfrac$mrow$sin'
p29
aS'mfrac$mrow$tan'
p30
aS'mfrac$mrow$var'
p31
aVmfrac$mrow$\u2212
p32
aS'mrow$('
p33
aS'mrow$)'
p34
aS'mrow$+'
p35
aS'mrow$['
p36
aS'mrow$]'
p37
aS'mrow$cn'
p38
aS'mrow$e'
p39
aS'mrow$msqrt'
p40
aS'mrow$msqrt$mrow$cn'
p41
aS'mrow$msqrt$mrow$msup'
p42
aS'mrow$msqrt$mrow$msup$cn'
p43
aS'mrow$msqrt$mrow$msup$var'
p44
aS'mrow$msqrt$mrow$var'
p45
aVmrow$msqrt$mrow$\u2212
p46
aS'mrow$var'
p47
aVmrow$\u2212
p48
aS'msqrt'
p49
aS'msqrt$mrow$cn'
p50
aS'msup'
p51
aS'msup$cn'
p52
aS'msup$cos'
p53
aS'msup$mrow$('
p54
aS'msup$mrow$)'
p55
aS'msup$mrow$cos'
p56
aS'msup$mrow$sin'
p57
aS'msup$mrow$var'
p58
aVmsup$mrow$\u2212
p59
aS'msup$sec'
p60
aS'msup$sin'
p61
aS'msup$var'
p62
aVmsup$\u2218
p63
aS'sec'
p64
aS'sin'
p65
aS'tan'
p66
aS'var'
p67
aV\u2212
p68
aV\u2218
p69
aV\u2260
p70
aV\u2264
p71
aV\u2265
p72
asS'total_terms'
p73
I688
s.