(dp1
S'SURDS'
p2
(lp3
S'19950200103'
p4
aS'199903003012'
p5
aS'200003003016'
p6
aS'200204003001'
p7
aS'20030200103'
p8
aS'200403003004'
p9
aS'20100400107'
p10
asS'EXPONENTIAL'
p11
(lp12
S'199500201006'
p13
aS'19960200103'
p14
aS'200003003004'
p15
aS'20100400105'
p16
aS'199500201002'
p17
aS'19950200107'
p18
aS'20030100109'
p19
aS'19950400106'
p20
aS'19960400104'
p21
aS'19960400105'
p22
aS'19980400105'
p23
aS'19990400103'
p24
aS'20100400105'
p25
asS'SERIES'
p26
(lp27
S'199803003008'
p28
aS'199903003014'
p29
aS'200203003012'
p30
aS'200303003011'
p31
aS'200503003006'
p32
aS'200603003011'
p33
aS'199703003017'
p34
aS'200203003012'
p35
asS'INTEGRATION'
p36
(lp37
S'200503003003'
p38
aS'200203003011'
p39
aS'200003003010'
p40
aS'199903003011'
p41
aS'199703003018'
p42
aS'200103003018'
p43
aS'200203003015'
p44
aS'200704003004'
p45
aS'199903003004'
p46
aS'200003003005'
p47
aS'200003003013'
p48
aS'200203003006'
p49
aS'200403003004'
p50
asS'POLYNOMIALS'
p51
(lp52
S'19950200101'
p53
aS'19950300103'
p54
aS'19950400101'
p55
aS'19960400101'
p56
aS'19960200101'
p57
aS'19970200101'
p58
aS'19970400101'
p59
aS'19980400101'
p60
aS'19980400101'
p61
aS'20010200101'
p62
aS'20010400101'
p63
aS'20030200101'
p64
aS'20100300101'
p65
aS'199903003008'
p66
asS'INEQUALITY'
p67
(lp68
S'19980100117'
p69
aS'20100300105'
p70
aS'200000201015'
p71
aS'200103003013'
p72
aS'200100203010'
p73
aS'199700201014'
p74
aS'199700203014'
p75
aS'199703003006'
p76
aS'200203003004'
p77
aS'200604003001'
p78
aS'200703003001'
p79
aS'200503003005'
p80
aS'19980300103'
p81
aS'200003003016'
p82
aS'200204003005'
p83
aS'200504003024'
p84
asS'ABSOLUTE (|)'
p85
(lp86
S'199803003015'
p87
aS'199703003006'
p88
aS'19970300118'
p89
aS'20010300114'
p90
aS'200103003013'
p91
aS'20020200102'
p92
aS'200303003007'
p93
aS'20090400107'
p94
aS'200703003003'
p95
aS'200603003005'
p96
aS'20100300105'
p97
asS'FRACTION'
p98
(lp99
S'199703003013'
p100
aS'19960200107'
p101
aS'199703003016'
p102
aS'200303003010'
p103
aS'20090400102'
p104
aS'200103003001'
p105
aS'200300203001'
p106
aS'201214004007'
p107
aS'199703003018'
p108
aS'199800203003'
p109
aS'19980100107'
p110
aS'19980300104'
p111
asS'TRIGONOMETRY'
p112
(lp113
S'19950100105'
p114
aS'19950300102'
p115
aS'19960200107'
p116
aS'19970200107'
p117
aS'19950400108'
p118
aS'19960100118'
p119
aS'199703003009'
p120
aS'199703003011'
p121
aS'199803003019'
p122
aS'19990300106'
p123
aS'199703003009'
p124
asS'LOGARITHMIC'
p125
(lp126
S'20070400107'
p127
aS'20080400104'
p128
aS'19980200105'
p129
aS'20020200110'
p130
aS'20020300108'
p131
aS'20030100109'
p132
aS'20030400103'
p133
aS'20040400105'
p134
aS'20050300107'
p135
aS'20060300108'
p136
aS'200604003003'
p137
aS'20030400103'
p138
aS'20070400107'
p139
aS'20090300104'
p140
asS'DIFFERENTIATION (mathrm)'
p141
(lp142
S'19960200106'
p143
aS'199903003012'
p144
aS'200203003008'
p145
aS'200503003010'
p146
aS'19950100114'
p147
aS'19950200108'
p148
aS'19950300105'
p149
aS'19970100106'
p150
aS'19980100104'
p151
as.